target datalayout = "e-m:e-p270:32:32-p271:32:32-p272:64:64-i64:64-i128:128-f80:128-n8:16:32:64-S128"
target triple = "x86_64-pc-linux-gnu"

; Function Attrs: cold nounwind optsize uwtable
define internal i32 @ulaw2linear(i8 noundef zeroext %0) #0 {
  %2 = alloca i8, align 1
  %3 = alloca i32, align 4
  store i8 %0, ptr %2, align 1, !tbaa !67
  call void @llvm.lifetime.start.p0(i64 4, ptr %3) #8
  %4 = load i8, ptr %2, align 1, !tbaa !67
  %5 = zext i8 %4 to i32
  %6 = xor i32 %5, -1
  %7 = trunc i32 %6 to i8
  store i8 %7, ptr %2, align 1, !tbaa !67
  %8 = load i8, ptr %2, align 1, !tbaa !67
  %9 = zext i8 %8 to i32
  %10 = and i32 %9, 15
  %11 = shl i32 %10, 3
  %12 = add nsw i32 %11, 132
  store i32 %12, ptr %3, align 4, !tbaa !32
  %13 = load i8, ptr %2, align 1, !tbaa !67
  %14 = zext i8 %13 to i32
  %15 = and i32 %14, 112
  %16 = lshr i32 %15, 4
  %17 = load i32, ptr %3, align 4, !tbaa !32
  %18 = shl i32 %17, %16
  store i32 %18, ptr %3, align 4, !tbaa !32
  %19 = load i8, ptr %2, align 1, !tbaa !67
  %20 = zext i8 %19 to i32
  %21 = and i32 %20, 128
  %22 = icmp ne i32 %21, 0
  br i1 %22, label %23, label %26

23:                                               ; preds = %1
  %24 = load i32, ptr %3, align 4, !tbaa !32
  %25 = sub nsw i32 132, %24
  br label %29

26:                                               ; preds = %1
  %27 = load i32, ptr %3, align 4, !tbaa !32
  %28 = sub nsw i32 %27, 132
  br label %29

29:                                               ; preds = %26, %23
  %30 = phi i32 [ %25, %23 ], [ %28, %26 ]
  call void @llvm.lifetime.end.p0(i64 4, ptr %3) #8
  ret i32 %30
}