; Function Attrs: cold mustprogress nofree norecurse nosync nounwind optsize willreturn memory(none) uwtable
define internal range(i32 -32124, 32125) i32 @ulaw2linear(i8 noundef zeroext %0) #3 {
  %2 = xor i8 %0, -1
  %3 = zext i8 %2 to i32
  %4 = shl nuw nsw i32 %3, 3
  %5 = and i32 %4, 120
  %6 = or disjoint i32 %5, 132
  %7 = lshr i32 %3, 4
  %8 = and i32 %7, 7
  %9 = shl nuw nsw i32 %6, %8
  %.not = icmp slt i8 %0, 0
  %10 = sub nsw i32 132, %9
  %11 = add nsw i32 %9, -132
  %12 = select i1 %.not, i32 %11, i32 %10
  ret i32 %12
}